	.file	"task1_.c"
	.text
	.globl	loopsize
	.bss
	.align 4
	.type	loopsize, @object
	.size	loopsize, 4
loopsize:
	.zero	4
	.globl	SIZE
	.align 4
	.type	SIZE, @object
	.size	SIZE, 4
SIZE:
	.zero	4
	.text
	.globl	init
	.type	init, @function
init:
.LFB6:
	.cfi_startproc
	endbr64
	pushq	%rbp
	.cfi_def_cfa_offset 16
	.cfi_offset 6, -16
	movq	%rsp, %rbp
	.cfi_def_cfa_register 6
	subq	$32, %rsp
	movq	%rdi, -24(%rbp)
	movq	%rsi, -32(%rbp)
	movl	$0, %edi
	call	time@PLT
	movl	%eax, %edi
	call	srand@PLT
	movl	$0, -8(%rbp)
	jmp	.L2
.L5:
	movl	$0, -4(%rbp)
	jmp	.L3
.L4:
	call	rand@PLT
	movl	%eax, %ecx
	movl	SIZE(%rip), %eax
	imull	-8(%rbp), %eax
	movl	%eax, %edx
	movl	-4(%rbp), %eax
	addl	%edx, %eax
	cltq
	leaq	0(,%rax,8), %rdx
	movq	-24(%rbp), %rax
	addq	%rdx, %rax
	pxor	%xmm0, %xmm0
	cvtsi2sdl	%ecx, %xmm0
	movsd	%xmm0, (%rax)
	call	rand@PLT
	movl	%eax, %ecx
	movl	SIZE(%rip), %eax
	imull	-8(%rbp), %eax
	movl	%eax, %edx
	movl	-4(%rbp), %eax
	addl	%edx, %eax
	cltq
	leaq	0(,%rax,8), %rdx
	movq	-32(%rbp), %rax
	addq	%rdx, %rax
	pxor	%xmm0, %xmm0
	cvtsi2sdl	%ecx, %xmm0
	movsd	%xmm0, (%rax)
	addl	$1, -4(%rbp)
.L3:
	movl	SIZE(%rip), %eax
	cmpl	%eax, -4(%rbp)
	jl	.L4
	addl	$1, -8(%rbp)
.L2:
	movl	SIZE(%rip), %eax
	cmpl	%eax, -8(%rbp)
	jl	.L5
	nop
	nop
	leave
	.cfi_def_cfa 7, 8
	ret
	.cfi_endproc
.LFE6:
	.size	init, .-init
	.globl	matmulikj
	.type	matmulikj, @function
matmulikj:
.LFB7:
	.cfi_startproc
	endbr64
	pushq	%rbp
	.cfi_def_cfa_offset 16
	.cfi_offset 6, -16
	movq	%rsp, %rbp
	.cfi_def_cfa_register 6
	movq	%rdi, -24(%rbp)
	movq	%rsi, -32(%rbp)
	movq	%rdx, -40(%rbp)
	movl	$0, -12(%rbp)
	jmp	.L7
.L12:
	movl	$0, -8(%rbp)
	jmp	.L8
.L11:
	movl	$0, -4(%rbp)
	jmp	.L9
.L10:
	movl	SIZE(%rip), %eax
	imull	-4(%rbp), %eax
	movl	%eax, %edx
	movl	-12(%rbp), %eax
	addl	%edx, %eax
	cltq
	leaq	0(,%rax,8), %rdx
	movq	-40(%rbp), %rax
	addq	%rdx, %rax
	movsd	(%rax), %xmm1
	movl	SIZE(%rip), %eax
	imull	-4(%rbp), %eax
	movl	%eax, %edx
	movl	-8(%rbp), %eax
	addl	%edx, %eax
	cltq
	leaq	0(,%rax,8), %rdx
	movq	-24(%rbp), %rax
	addq	%rdx, %rax
	movsd	(%rax), %xmm2
	movl	SIZE(%rip), %eax
	imull	-8(%rbp), %eax
	movl	%eax, %edx
	movl	-12(%rbp), %eax
	addl	%edx, %eax
	cltq
	leaq	0(,%rax,8), %rdx
	movq	-32(%rbp), %rax
	addq	%rdx, %rax
	movsd	(%rax), %xmm0
	mulsd	%xmm2, %xmm0
	movl	SIZE(%rip), %eax
	imull	-4(%rbp), %eax
	movl	%eax, %edx
	movl	-12(%rbp), %eax
	addl	%edx, %eax
	cltq
	leaq	0(,%rax,8), %rdx
	movq	-40(%rbp), %rax
	addq	%rdx, %rax
	addsd	%xmm1, %xmm0
	movsd	%xmm0, (%rax)
	addl	$1, -4(%rbp)
.L9:
	movl	SIZE(%rip), %eax
	cmpl	%eax, -4(%rbp)
	jl	.L10
	addl	$1, -8(%rbp)
.L8:
	movl	SIZE(%rip), %eax
	cmpl	%eax, -8(%rbp)
	jl	.L11
	addl	$1, -12(%rbp)
.L7:
	movl	SIZE(%rip), %eax
	cmpl	%eax, -12(%rbp)
	jl	.L12
	nop
	nop
	popq	%rbp
	.cfi_def_cfa 7, 8
	ret
	.cfi_endproc
.LFE7:
	.size	matmulikj, .-matmulikj
	.globl	matmulijk
	.type	matmulijk, @function
matmulijk:
.LFB8:
	.cfi_startproc
	endbr64
	pushq	%rbp
	.cfi_def_cfa_offset 16
	.cfi_offset 6, -16
	movq	%rsp, %rbp
	.cfi_def_cfa_register 6
	movq	%rdi, -24(%rbp)
	movq	%rsi, -32(%rbp)
	movq	%rdx, -40(%rbp)
	movl	$0, -12(%rbp)
	jmp	.L14
.L21:
	movl	$0, -8(%rbp)
	jmp	.L15
.L20:
	movl	$0, -4(%rbp)
	jmp	.L16
.L17:
	movl	SIZE(%rip), %eax
	imull	-8(%rbp), %eax
	movl	%eax, %edx
	movl	-12(%rbp), %eax
	addl	%edx, %eax
	cltq
	leaq	0(,%rax,8), %rdx
	movq	-40(%rbp), %rax
	addq	%rdx, %rax
	movsd	(%rax), %xmm1
	movl	SIZE(%rip), %eax
	imull	-8(%rbp), %eax
	movl	%eax, %edx
	movl	-4(%rbp), %eax
	addl	%edx, %eax
	cltq
	leaq	0(,%rax,8), %rdx
	movq	-24(%rbp), %rax
	addq	%rdx, %rax
	movsd	(%rax), %xmm2
	movl	SIZE(%rip), %eax
	imull	-4(%rbp), %eax
	movl	%eax, %edx
	movl	-12(%rbp), %eax
	addl	%edx, %eax
	cltq
	leaq	0(,%rax,8), %rdx
	movq	-32(%rbp), %rax
	addq	%rdx, %rax
	movsd	(%rax), %xmm0
	mulsd	%xmm2, %xmm0
	movl	SIZE(%rip), %eax
	imull	-8(%rbp), %eax
	movl	%eax, %edx
	movl	-12(%rbp), %eax
	addl	%edx, %eax
	cltq
	leaq	0(,%rax,8), %rdx
	movq	-40(%rbp), %rax
	addq	%rdx, %rax
	addsd	%xmm1, %xmm0
	movsd	%xmm0, (%rax)
	movl	SIZE(%rip), %eax
	imull	-8(%rbp), %eax
	movl	%eax, %edx
	movl	-12(%rbp), %eax
	addl	%edx, %eax
	cltq
	leaq	0(,%rax,8), %rdx
	movq	-40(%rbp), %rax
	addq	%rdx, %rax
	movsd	(%rax), %xmm1
	movl	SIZE(%rip), %eax
	imull	-8(%rbp), %eax
	movl	%eax, %edx
	movl	-4(%rbp), %eax
	addl	%edx, %eax
	cltq
	addq	$1, %rax
	leaq	0(,%rax,8), %rdx
	movq	-24(%rbp), %rax
	addq	%rdx, %rax
	movsd	(%rax), %xmm2
	movl	-4(%rbp), %eax
	leal	1(%rax), %edx
	movl	SIZE(%rip), %eax
	imull	%eax, %edx
	movl	-12(%rbp), %eax
	addl	%edx, %eax
	cltq
	leaq	0(,%rax,8), %rdx
	movq	-32(%rbp), %rax
	addq	%rdx, %rax
	movsd	(%rax), %xmm0
	mulsd	%xmm2, %xmm0
	movl	SIZE(%rip), %eax
	imull	-8(%rbp), %eax
	movl	%eax, %edx
	movl	-12(%rbp), %eax
	addl	%edx, %eax
	cltq
	leaq	0(,%rax,8), %rdx
	movq	-40(%rbp), %rax
	addq	%rdx, %rax
	addsd	%xmm1, %xmm0
	movsd	%xmm0, (%rax)
	movl	SIZE(%rip), %eax
	imull	-8(%rbp), %eax
	movl	%eax, %edx
	movl	-12(%rbp), %eax
	addl	%edx, %eax
	cltq
	leaq	0(,%rax,8), %rdx
	movq	-40(%rbp), %rax
	addq	%rdx, %rax
	movsd	(%rax), %xmm1
	movl	SIZE(%rip), %eax
	imull	-8(%rbp), %eax
	movl	%eax, %edx
	movl	-4(%rbp), %eax
	addl	%edx, %eax
	cltq
	addq	$2, %rax
	leaq	0(,%rax,8), %rdx
	movq	-24(%rbp), %rax
	addq	%rdx, %rax
	movsd	(%rax), %xmm2
	movl	-4(%rbp), %eax
	leal	2(%rax), %edx
	movl	SIZE(%rip), %eax
	imull	%eax, %edx
	movl	-12(%rbp), %eax
	addl	%edx, %eax
	cltq
	leaq	0(,%rax,8), %rdx
	movq	-32(%rbp), %rax
	addq	%rdx, %rax
	movsd	(%rax), %xmm0
	mulsd	%xmm2, %xmm0
	movl	SIZE(%rip), %eax
	imull	-8(%rbp), %eax
	movl	%eax, %edx
	movl	-12(%rbp), %eax
	addl	%edx, %eax
	cltq
	leaq	0(,%rax,8), %rdx
	movq	-40(%rbp), %rax
	addq	%rdx, %rax
	addsd	%xmm1, %xmm0
	movsd	%xmm0, (%rax)
	movl	SIZE(%rip), %eax
	imull	-8(%rbp), %eax
	movl	%eax, %edx
	movl	-12(%rbp), %eax
	addl	%edx, %eax
	cltq
	leaq	0(,%rax,8), %rdx
	movq	-40(%rbp), %rax
	addq	%rdx, %rax
	movsd	(%rax), %xmm1
	movl	SIZE(%rip), %eax
	imull	-8(%rbp), %eax
	movl	%eax, %edx
	movl	-4(%rbp), %eax
	addl	%edx, %eax
	cltq
	addq	$3, %rax
	leaq	0(,%rax,8), %rdx
	movq	-24(%rbp), %rax
	addq	%rdx, %rax
	movsd	(%rax), %xmm2
	movl	-4(%rbp), %eax
	leal	3(%rax), %edx
	movl	SIZE(%rip), %eax
	imull	%eax, %edx
	movl	-12(%rbp), %eax
	addl	%edx, %eax
	cltq
	leaq	0(,%rax,8), %rdx
	movq	-32(%rbp), %rax
	addq	%rdx, %rax
	movsd	(%rax), %xmm0
	mulsd	%xmm2, %xmm0
	movl	SIZE(%rip), %eax
	imull	-8(%rbp), %eax
	movl	%eax, %edx
	movl	-12(%rbp), %eax
	addl	%edx, %eax
	cltq
	leaq	0(,%rax,8), %rdx
	movq	-40(%rbp), %rax
	addq	%rdx, %rax
	addsd	%xmm1, %xmm0
	movsd	%xmm0, (%rax)
	movl	SIZE(%rip), %eax
	imull	-8(%rbp), %eax
	movl	%eax, %edx
	movl	-12(%rbp), %eax
	addl	%edx, %eax
	cltq
	leaq	0(,%rax,8), %rdx
	movq	-40(%rbp), %rax
	addq	%rdx, %rax
	movsd	(%rax), %xmm1
	movl	SIZE(%rip), %eax
	imull	-8(%rbp), %eax
	movl	%eax, %edx
	movl	-4(%rbp), %eax
	addl	%edx, %eax
	cltq
	addq	$4, %rax
	leaq	0(,%rax,8), %rdx
	movq	-24(%rbp), %rax
	addq	%rdx, %rax
	movsd	(%rax), %xmm2
	movl	-4(%rbp), %eax
	leal	4(%rax), %edx
	movl	SIZE(%rip), %eax
	imull	%eax, %edx
	movl	-12(%rbp), %eax
	addl	%edx, %eax
	cltq
	leaq	0(,%rax,8), %rdx
	movq	-32(%rbp), %rax
	addq	%rdx, %rax
	movsd	(%rax), %xmm0
	mulsd	%xmm2, %xmm0
	movl	SIZE(%rip), %eax
	imull	-8(%rbp), %eax
	movl	%eax, %edx
	movl	-12(%rbp), %eax
	addl	%edx, %eax
	cltq
	leaq	0(,%rax,8), %rdx
	movq	-40(%rbp), %rax
	addq	%rdx, %rax
	addsd	%xmm1, %xmm0
	movsd	%xmm0, (%rax)
	movl	SIZE(%rip), %eax
	imull	-8(%rbp), %eax
	movl	%eax, %edx
	movl	-12(%rbp), %eax
	addl	%edx, %eax
	cltq
	leaq	0(,%rax,8), %rdx
	movq	-40(%rbp), %rax
	addq	%rdx, %rax
	movsd	(%rax), %xmm1
	movl	SIZE(%rip), %eax
	imull	-8(%rbp), %eax
	movl	%eax, %edx
	movl	-4(%rbp), %eax
	addl	%edx, %eax
	cltq
	addq	$5, %rax
	leaq	0(,%rax,8), %rdx
	movq	-24(%rbp), %rax
	addq	%rdx, %rax
	movsd	(%rax), %xmm2
	movl	-4(%rbp), %eax
	leal	5(%rax), %edx
	movl	SIZE(%rip), %eax
	imull	%eax, %edx
	movl	-12(%rbp), %eax
	addl	%edx, %eax
	cltq
	leaq	0(,%rax,8), %rdx
	movq	-32(%rbp), %rax
	addq	%rdx, %rax
	movsd	(%rax), %xmm0
	mulsd	%xmm2, %xmm0
	movl	SIZE(%rip), %eax
	imull	-8(%rbp), %eax
	movl	%eax, %edx
	movl	-12(%rbp), %eax
	addl	%edx, %eax
	cltq
	leaq	0(,%rax,8), %rdx
	movq	-40(%rbp), %rax
	addq	%rdx, %rax
	addsd	%xmm1, %xmm0
	movsd	%xmm0, (%rax)
	movl	SIZE(%rip), %eax
	imull	-8(%rbp), %eax
	movl	%eax, %edx
	movl	-12(%rbp), %eax
	addl	%edx, %eax
	cltq
	leaq	0(,%rax,8), %rdx
	movq	-40(%rbp), %rax
	addq	%rdx, %rax
	movsd	(%rax), %xmm1
	movl	SIZE(%rip), %eax
	imull	-8(%rbp), %eax
	movl	%eax, %edx
	movl	-4(%rbp), %eax
	addl	%edx, %eax
	cltq
	addq	$6, %rax
	leaq	0(,%rax,8), %rdx
	movq	-24(%rbp), %rax
	addq	%rdx, %rax
	movsd	(%rax), %xmm2
	movl	-4(%rbp), %eax
	leal	6(%rax), %edx
	movl	SIZE(%rip), %eax
	imull	%eax, %edx
	movl	-12(%rbp), %eax
	addl	%edx, %eax
	cltq
	leaq	0(,%rax,8), %rdx
	movq	-32(%rbp), %rax
	addq	%rdx, %rax
	movsd	(%rax), %xmm0
	mulsd	%xmm2, %xmm0
	movl	SIZE(%rip), %eax
	imull	-8(%rbp), %eax
	movl	%eax, %edx
	movl	-12(%rbp), %eax
	addl	%edx, %eax
	cltq
	leaq	0(,%rax,8), %rdx
	movq	-40(%rbp), %rax
	addq	%rdx, %rax
	addsd	%xmm1, %xmm0
	movsd	%xmm0, (%rax)
	movl	SIZE(%rip), %eax
	imull	-8(%rbp), %eax
	movl	%eax, %edx
	movl	-12(%rbp), %eax
	addl	%edx, %eax
	cltq
	leaq	0(,%rax,8), %rdx
	movq	-40(%rbp), %rax
	addq	%rdx, %rax
	movsd	(%rax), %xmm1
	movl	SIZE(%rip), %eax
	imull	-8(%rbp), %eax
	movl	%eax, %edx
	movl	-4(%rbp), %eax
	addl	%edx, %eax
	cltq
	addq	$7, %rax
	leaq	0(,%rax,8), %rdx
	movq	-24(%rbp), %rax
	addq	%rdx, %rax
	movsd	(%rax), %xmm2
	movl	-4(%rbp), %eax
	leal	7(%rax), %edx
	movl	SIZE(%rip), %eax
	imull	%eax, %edx
	movl	-12(%rbp), %eax
	addl	%edx, %eax
	cltq
	leaq	0(,%rax,8), %rdx
	movq	-32(%rbp), %rax
	addq	%rdx, %rax
	movsd	(%rax), %xmm0
	mulsd	%xmm2, %xmm0
	movl	SIZE(%rip), %eax
	imull	-8(%rbp), %eax
	movl	%eax, %edx
	movl	-12(%rbp), %eax
	addl	%edx, %eax
	cltq
	leaq	0(,%rax,8), %rdx
	movq	-40(%rbp), %rax
	addq	%rdx, %rax
	addsd	%xmm1, %xmm0
	movsd	%xmm0, (%rax)
	addl	$8, -4(%rbp)
.L16:
	movl	-4(%rbp), %eax
	leal	7(%rax), %edx
	movl	SIZE(%rip), %eax
	cmpl	%eax, %edx
	jl	.L17
	jmp	.L18
.L19:
	movl	SIZE(%rip), %eax
	imull	-8(%rbp), %eax
	movl	%eax, %edx
	movl	-12(%rbp), %eax
	addl	%edx, %eax
	cltq
	leaq	0(,%rax,8), %rdx
	movq	-40(%rbp), %rax
	addq	%rdx, %rax
	movsd	(%rax), %xmm1
	movl	SIZE(%rip), %eax
	imull	-8(%rbp), %eax
	movl	%eax, %edx
	movl	-4(%rbp), %eax
	addl	%edx, %eax
	cltq
	leaq	0(,%rax,8), %rdx
	movq	-24(%rbp), %rax
	addq	%rdx, %rax
	movsd	(%rax), %xmm2
	movl	SIZE(%rip), %eax
	imull	-4(%rbp), %eax
	movl	%eax, %edx
	movl	-12(%rbp), %eax
	addl	%edx, %eax
	cltq
	leaq	0(,%rax,8), %rdx
	movq	-32(%rbp), %rax
	addq	%rdx, %rax
	movsd	(%rax), %xmm0
	mulsd	%xmm2, %xmm0
	movl	SIZE(%rip), %eax
	imull	-8(%rbp), %eax
	movl	%eax, %edx
	movl	-12(%rbp), %eax
	addl	%edx, %eax
	cltq
	leaq	0(,%rax,8), %rdx
	movq	-40(%rbp), %rax
	addq	%rdx, %rax
	addsd	%xmm1, %xmm0
	movsd	%xmm0, (%rax)
	addl	$1, -4(%rbp)
.L18:
	movl	SIZE(%rip), %eax
	cmpl	%eax, -4(%rbp)
	jl	.L19
	addl	$1, -8(%rbp)
.L15:
	movl	SIZE(%rip), %eax
	cmpl	%eax, -8(%rbp)
	jl	.L20
	addl	$1, -12(%rbp)
.L14:
	movl	SIZE(%rip), %eax
	cmpl	%eax, -12(%rbp)
	jl	.L21
	nop
	nop
	popq	%rbp
	.cfi_def_cfa 7, 8
	ret
	.cfi_endproc
.LFE8:
	.size	matmulijk, .-matmulijk
	.globl	matmulijkWOUnroll
	.type	matmulijkWOUnroll, @function
matmulijkWOUnroll:
.LFB9:
	.cfi_startproc
	endbr64
	pushq	%rbp
	.cfi_def_cfa_offset 16
	.cfi_offset 6, -16
	movq	%rsp, %rbp
	.cfi_def_cfa_register 6
	movq	%rdi, -24(%rbp)
	movq	%rsi, -32(%rbp)
	movq	%rdx, -40(%rbp)
	movl	$0, -12(%rbp)
	jmp	.L23
.L28:
	movl	$0, -8(%rbp)
	jmp	.L24
.L27:
	movl	$0, -4(%rbp)
	jmp	.L25
.L26:
	movl	SIZE(%rip), %eax
	imull	-8(%rbp), %eax
	movl	%eax, %edx
	movl	-12(%rbp), %eax
	addl	%edx, %eax
	cltq
	leaq	0(,%rax,8), %rdx
	movq	-40(%rbp), %rax
	addq	%rdx, %rax
	movsd	(%rax), %xmm1
	movl	SIZE(%rip), %eax
	imull	-8(%rbp), %eax
	movl	%eax, %edx
	movl	-4(%rbp), %eax
	addl	%edx, %eax
	cltq
	leaq	0(,%rax,8), %rdx
	movq	-24(%rbp), %rax
	addq	%rdx, %rax
	movsd	(%rax), %xmm2
	movl	SIZE(%rip), %eax
	imull	-4(%rbp), %eax
	movl	%eax, %edx
	movl	-12(%rbp), %eax
	addl	%edx, %eax
	cltq
	leaq	0(,%rax,8), %rdx
	movq	-32(%rbp), %rax
	addq	%rdx, %rax
	movsd	(%rax), %xmm0
	mulsd	%xmm2, %xmm0
	movl	SIZE(%rip), %eax
	imull	-8(%rbp), %eax
	movl	%eax, %edx
	movl	-12(%rbp), %eax
	addl	%edx, %eax
	cltq
	leaq	0(,%rax,8), %rdx
	movq	-40(%rbp), %rax
	addq	%rdx, %rax
	addsd	%xmm1, %xmm0
	movsd	%xmm0, (%rax)
	addl	$1, -4(%rbp)
.L25:
	movl	SIZE(%rip), %eax
	cmpl	%eax, -4(%rbp)
	jl	.L26
	addl	$1, -8(%rbp)
.L24:
	movl	SIZE(%rip), %eax
	cmpl	%eax, -8(%rbp)
	jl	.L27
	addl	$1, -12(%rbp)
.L23:
	movl	SIZE(%rip), %eax
	cmpl	%eax, -12(%rbp)
	jl	.L28
	nop
	nop
	popq	%rbp
	.cfi_def_cfa 7, 8
	ret
	.cfi_endproc
.LFE9:
	.size	matmulijkWOUnroll, .-matmulijkWOUnroll
	.globl	matmuljik
	.type	matmuljik, @function
matmuljik:
.LFB10:
	.cfi_startproc
	endbr64
	pushq	%rbp
	.cfi_def_cfa_offset 16
	.cfi_offset 6, -16
	movq	%rsp, %rbp
	.cfi_def_cfa_register 6
	movq	%rdi, -24(%rbp)
	movq	%rsi, -32(%rbp)
	movq	%rdx, -40(%rbp)
	movl	$0, -12(%rbp)
	jmp	.L30
.L35:
	movl	$0, -8(%rbp)
	jmp	.L31
.L34:
	movl	$0, -4(%rbp)
	jmp	.L32
.L33:
	movl	SIZE(%rip), %eax
	imull	-12(%rbp), %eax
	movl	%eax, %edx
	movl	-8(%rbp), %eax
	addl	%edx, %eax
	cltq
	leaq	0(,%rax,8), %rdx
	movq	-40(%rbp), %rax
	addq	%rdx, %rax
	movsd	(%rax), %xmm1
	movl	SIZE(%rip), %eax
	imull	-12(%rbp), %eax
	movl	%eax, %edx
	movl	-4(%rbp), %eax
	addl	%edx, %eax
	cltq
	leaq	0(,%rax,8), %rdx
	movq	-24(%rbp), %rax
	addq	%rdx, %rax
	movsd	(%rax), %xmm2
	movl	SIZE(%rip), %eax
	imull	-4(%rbp), %eax
	movl	%eax, %edx
	movl	-8(%rbp), %eax
	addl	%edx, %eax
	cltq
	leaq	0(,%rax,8), %rdx
	movq	-32(%rbp), %rax
	addq	%rdx, %rax
	movsd	(%rax), %xmm0
	mulsd	%xmm2, %xmm0
	movl	SIZE(%rip), %eax
	imull	-12(%rbp), %eax
	movl	%eax, %edx
	movl	-8(%rbp), %eax
	addl	%edx, %eax
	cltq
	leaq	0(,%rax,8), %rdx
	movq	-40(%rbp), %rax
	addq	%rdx, %rax
	addsd	%xmm1, %xmm0
	movsd	%xmm0, (%rax)
	addl	$1, -4(%rbp)
.L32:
	movl	SIZE(%rip), %eax
	cmpl	%eax, -4(%rbp)
	jl	.L33
	addl	$1, -8(%rbp)
.L31:
	movl	SIZE(%rip), %eax
	cmpl	%eax, -8(%rbp)
	jl	.L34
	addl	$1, -12(%rbp)
.L30:
	movl	SIZE(%rip), %eax
	cmpl	%eax, -12(%rbp)
	jl	.L35
	nop
	nop
	popq	%rbp
	.cfi_def_cfa 7, 8
	ret
	.cfi_endproc
.LFE10:
	.size	matmuljik, .-matmuljik
	.globl	matmuljki
	.type	matmuljki, @function
matmuljki:
.LFB11:
	.cfi_startproc
	endbr64
	pushq	%rbp
	.cfi_def_cfa_offset 16
	.cfi_offset 6, -16
	movq	%rsp, %rbp
	.cfi_def_cfa_register 6
	movq	%rdi, -24(%rbp)
	movq	%rsi, -32(%rbp)
	movq	%rdx, -40(%rbp)
	movl	$0, -12(%rbp)
	jmp	.L37
.L42:
	movl	$0, -8(%rbp)
	jmp	.L38
.L41:
	movl	$0, -4(%rbp)
	jmp	.L39
.L40:
	movl	SIZE(%rip), %eax
	imull	-12(%rbp), %eax
	movl	%eax, %edx
	movl	-4(%rbp), %eax
	addl	%edx, %eax
	cltq
	leaq	0(,%rax,8), %rdx
	movq	-40(%rbp), %rax
	addq	%rdx, %rax
	movsd	(%rax), %xmm1
	movl	SIZE(%rip), %eax
	imull	-12(%rbp), %eax
	movl	%eax, %edx
	movl	-8(%rbp), %eax
	addl	%edx, %eax
	cltq
	leaq	0(,%rax,8), %rdx
	movq	-24(%rbp), %rax
	addq	%rdx, %rax
	movsd	(%rax), %xmm2
	movl	SIZE(%rip), %eax
	imull	-8(%rbp), %eax
	movl	%eax, %edx
	movl	-4(%rbp), %eax
	addl	%edx, %eax
	cltq
	leaq	0(,%rax,8), %rdx
	movq	-32(%rbp), %rax
	addq	%rdx, %rax
	movsd	(%rax), %xmm0
	mulsd	%xmm2, %xmm0
	movl	SIZE(%rip), %eax
	imull	-12(%rbp), %eax
	movl	%eax, %edx
	movl	-4(%rbp), %eax
	addl	%edx, %eax
	cltq
	leaq	0(,%rax,8), %rdx
	movq	-40(%rbp), %rax
	addq	%rdx, %rax
	addsd	%xmm1, %xmm0
	movsd	%xmm0, (%rax)
	addl	$1, -4(%rbp)
.L39:
	movl	SIZE(%rip), %eax
	cmpl	%eax, -4(%rbp)
	jl	.L40
	addl	$1, -8(%rbp)
.L38:
	movl	SIZE(%rip), %eax
	cmpl	%eax, -8(%rbp)
	jl	.L41
	addl	$1, -12(%rbp)
.L37:
	movl	SIZE(%rip), %eax
	cmpl	%eax, -12(%rbp)
	jl	.L42
	nop
	nop
	popq	%rbp
	.cfi_def_cfa 7, 8
	ret
	.cfi_endproc
.LFE11:
	.size	matmuljki, .-matmuljki
	.globl	matmulkji
	.type	matmulkji, @function
matmulkji:
.LFB12:
	.cfi_startproc
	endbr64
	pushq	%rbp
	.cfi_def_cfa_offset 16
	.cfi_offset 6, -16
	movq	%rsp, %rbp
	.cfi_def_cfa_register 6
	movq	%rdi, -24(%rbp)
	movq	%rsi, -32(%rbp)
	movq	%rdx, -40(%rbp)
	movl	$0, -12(%rbp)
	jmp	.L44
.L49:
	movl	$0, -8(%rbp)
	jmp	.L45
.L48:
	movl	$0, -4(%rbp)
	jmp	.L46
.L47:
	movl	SIZE(%rip), %eax
	imull	-8(%rbp), %eax
	movl	%eax, %edx
	movl	-4(%rbp), %eax
	addl	%edx, %eax
	cltq
	leaq	0(,%rax,8), %rdx
	movq	-40(%rbp), %rax
	addq	%rdx, %rax
	movsd	(%rax), %xmm1
	movl	SIZE(%rip), %eax
	imull	-8(%rbp), %eax
	movl	%eax, %edx
	movl	-12(%rbp), %eax
	addl	%edx, %eax
	cltq
	leaq	0(,%rax,8), %rdx
	movq	-24(%rbp), %rax
	addq	%rdx, %rax
	movsd	(%rax), %xmm2
	movl	SIZE(%rip), %eax
	imull	-12(%rbp), %eax
	movl	%eax, %edx
	movl	-4(%rbp), %eax
	addl	%edx, %eax
	cltq
	leaq	0(,%rax,8), %rdx
	movq	-32(%rbp), %rax
	addq	%rdx, %rax
	movsd	(%rax), %xmm0
	mulsd	%xmm2, %xmm0
	movl	SIZE(%rip), %eax
	imull	-8(%rbp), %eax
	movl	%eax, %edx
	movl	-4(%rbp), %eax
	addl	%edx, %eax
	cltq
	leaq	0(,%rax,8), %rdx
	movq	-40(%rbp), %rax
	addq	%rdx, %rax
	addsd	%xmm1, %xmm0
	movsd	%xmm0, (%rax)
	addl	$1, -4(%rbp)
.L46:
	movl	SIZE(%rip), %eax
	cmpl	%eax, -4(%rbp)
	jl	.L47
	addl	$1, -8(%rbp)
.L45:
	movl	SIZE(%rip), %eax
	cmpl	%eax, -8(%rbp)
	jl	.L48
	addl	$1, -12(%rbp)
.L44:
	movl	SIZE(%rip), %eax
	cmpl	%eax, -12(%rbp)
	jl	.L49
	nop
	nop
	popq	%rbp
	.cfi_def_cfa 7, 8
	ret
	.cfi_endproc
.LFE12:
	.size	matmulkji, .-matmulkji
	.section	.rodata
.LC0:
	.string	"less args"
.LC1:
	.string	"%d"
.LC4:
	.string	" %f"
.LC5:
	.string	" %lld"
.LC6:
	.string	" "
	.text
	.globl	main
	.type	main, @function
main:
.LFB13:
	.cfi_startproc
	endbr64
	pushq	%rbp
	.cfi_def_cfa_offset 16
	.cfi_offset 6, -16
	movq	%rsp, %rbp
	.cfi_def_cfa_register 6
	subq	$144, %rsp
	movl	%edi, -132(%rbp)
	movq	%rsi, -144(%rbp)
	movq	%fs:40, %rax
	movq	%rax, -8(%rbp)
	xorl	%eax, %eax
	cmpl	$3, -132(%rbp)
	je	.L51
	leaq	.LC0(%rip), %rax
	movq	%rax, %rdi
	movl	$0, %eax
	call	printf@PLT
	movl	-132(%rbp), %eax
	movl	%eax, %esi
	leaq	.LC1(%rip), %rax
	movq	%rax, %rdi
	movl	$0, %eax
	call	printf@PLT
	movl	$1, %eax
	jmp	.L55
.L51:
	movq	-144(%rbp), %rax
	movq	8(%rax), %rax
	movq	%rax, -112(%rbp)
	movq	-144(%rbp), %rax
	movq	16(%rax), %rax
	movq	%rax, -104(%rbp)
	movq	-104(%rbp), %rax
	movq	%rax, %rdi
	call	atoi@PLT
	movl	%eax, loopsize(%rip)
	movq	-112(%rbp), %rax
	movq	%rax, %rdi
	call	atoi@PLT
	movl	%eax, SIZE(%rip)
	movl	SIZE(%rip), %edx
	movl	SIZE(%rip), %eax
	imull	%edx, %eax
	cltq
	salq	$3, %rax
	movq	%rax, %rdi
	call	malloc@PLT
	movq	%rax, -96(%rbp)
	movl	SIZE(%rip), %edx
	movl	SIZE(%rip), %eax
	imull	%edx, %eax
	cltq
	salq	$3, %rax
	movq	%rax, %rdi
	call	malloc@PLT
	movq	%rax, -88(%rbp)
	movl	SIZE(%rip), %edx
	movl	SIZE(%rip), %eax
	imull	%edx, %eax
	cltq
	salq	$3, %rax
	movq	%rax, %rdi
	call	malloc@PLT
	movq	%rax, -80(%rbp)
	pxor	%xmm0, %xmm0
	movsd	%xmm0, -72(%rbp)
	movq	$0, -64(%rbp)
	movq	-88(%rbp), %rdx
	movq	-96(%rbp), %rax
	movq	%rdx, %rsi
	movq	%rax, %rdi
	call	init
	leaq	-32(%rbp), %rax
	movl	$0, %esi
	movq	%rax, %rdi
	call	gettimeofday@PLT
	movq	-32(%rbp), %rax
	imulq	$1000, %rax, %rsi
	movq	-24(%rbp), %rcx
	movabsq	$2361183241434822607, %rdx
	movq	%rcx, %rax
	imulq	%rdx
	sarq	$7, %rdx
	movq	%rcx, %rax
	sarq	$63, %rax
	subq	%rax, %rdx
	leaq	(%rsi,%rdx), %rax
	movq	%rax, -56(%rbp)
	movl	$0, -116(%rbp)
	jmp	.L53
.L54:
	movq	-80(%rbp), %rdx
	movq	-88(%rbp), %rcx
	movq	-96(%rbp), %rax
	movq	%rcx, %rsi
	movq	%rax, %rdi
	call	matmulijk
	addl	$1, -116(%rbp)
.L53:
	movl	loopsize(%rip), %eax
	cmpl	%eax, -116(%rbp)
	jl	.L54
	leaq	-32(%rbp), %rax
	movl	$0, %esi
	movq	%rax, %rdi
	call	gettimeofday@PLT
	movq	-32(%rbp), %rax
	imulq	$1000, %rax, %rsi
	movq	-24(%rbp), %rcx
	movabsq	$2361183241434822607, %rdx
	movq	%rcx, %rax
	imulq	%rdx
	sarq	$7, %rdx
	movq	%rcx, %rax
	sarq	$63, %rax
	subq	%rax, %rdx
	leaq	(%rsi,%rdx), %rax
	subq	-56(%rbp), %rax
	movq	%rax, -48(%rbp)
	movl	SIZE(%rip), %edx
	movl	SIZE(%rip), %eax
	imull	%edx, %eax
	pxor	%xmm0, %xmm0
	cvtsi2sdl	%eax, %xmm0
	movsd	%xmm0, -40(%rbp)
	movl	SIZE(%rip), %eax
	addl	%eax, %eax
	subl	$1, %eax
	pxor	%xmm0, %xmm0
	cvtsi2sdl	%eax, %xmm0
	movsd	-40(%rbp), %xmm1
	mulsd	%xmm1, %xmm0
	movsd	%xmm0, -40(%rbp)
	movl	loopsize(%rip), %eax
	pxor	%xmm0, %xmm0
	cvtsi2sdl	%eax, %xmm0
	movsd	-40(%rbp), %xmm1
	mulsd	%xmm1, %xmm0
	movsd	%xmm0, -40(%rbp)
	movsd	-40(%rbp), %xmm0
	cvttsd2siq	%xmm0, %rax
	movq	%rax, -64(%rbp)
	movsd	-40(%rbp), %xmm0
	movsd	%xmm0, -72(%rbp)
	pxor	%xmm1, %xmm1
	cvtsi2sdq	-48(%rbp), %xmm1
	movsd	-72(%rbp), %xmm0
	divsd	%xmm1, %xmm0
	movsd	%xmm0, -72(%rbp)
	movsd	-72(%rbp), %xmm0
	movsd	.LC3(%rip), %xmm1
	divsd	%xmm1, %xmm0
	movsd	%xmm0, -72(%rbp)
	movq	-72(%rbp), %rax
	movq	%rax, %xmm0
	leaq	.LC4(%rip), %rax
	movq	%rax, %rdi
	movl	$1, %eax
	call	printf@PLT
	movq	-64(%rbp), %rax
	movq	%rax, %rsi
	leaq	.LC5(%rip), %rax
	movq	%rax, %rdi
	movl	$0, %eax
	call	printf@PLT
	movq	-48(%rbp), %rax
	movq	%rax, %rsi
	leaq	.LC5(%rip), %rax
	movq	%rax, %rdi
	movl	$0, %eax
	call	printf@PLT
	leaq	.LC6(%rip), %rax
	movq	%rax, %rdi
	call	puts@PLT
	movq	-96(%rbp), %rax
	movq	%rax, %rdi
	call	free@PLT
	movq	-88(%rbp), %rax
	movq	%rax, %rdi
	call	free@PLT
	movq	-80(%rbp), %rax
	movq	%rax, %rdi
	call	free@PLT
	movl	$0, %eax
.L55:
	movq	-8(%rbp), %rdx
	subq	%fs:40, %rdx
	je	.L56
	call	__stack_chk_fail@PLT
.L56:
	leave
	.cfi_def_cfa 7, 8
	ret
	.cfi_endproc
.LFE13:
	.size	main, .-main
	.section	.rodata
	.align 8
.LC3:
	.long	0
	.long	1093567616
	.ident	"GCC: (Ubuntu 12.1.0-2ubuntu1~22.04) 12.1.0"
	.section	.note.GNU-stack,"",@progbits
	.section	.note.gnu.property,"a"
	.align 8
	.long	1f - 0f
	.long	4f - 1f
	.long	5
0:
	.string	"GNU"
1:
	.align 8
	.long	0xc0000002
	.long	3f - 2f
2:
	.long	0x3
3:
	.align 8
4:
